(lp1
(dp2
S'alpha'
p3
F0.050000000000000003
sS'lmbda'
p4
I0
sa(dp5
g3
F0.050000000000000003
sg4
F0.20000000000000001
sa(dp6
g3
F0.050000000000000003
sg4
F0.40000000000000002
sa(dp7
g3
F0.050000000000000003
sg4
F0.59999999999999998
sa(dp8
g3
F0.050000000000000003
sg4
F0.80000000000000004
sa(dp9
g3
F0.050000000000000003
sg4
F0.90000000000000002
sa(dp10
g3
F0.050000000000000003
sg4
F0.94999999999999996
sa(dp11
g3
F0.050000000000000003
sg4
F0.97999999999999998
sa(dp12
g3
F0.050000000000000003
sg4
F0.98999999999999999
sa(dp13
g3
F0.050000000000000003
sg4
F0.995
sa(dp14
g3
F0.050000000000000003
sg4
F0.998
sa(dp15
g3
F0.050000000000000003
sg4
F0.999
sa(dp16
g3
F0.050000000000000003
sg4
I1
sa(dp17
g3
F0.10000000000000001
sg4
I0
sa(dp18
g3
F0.10000000000000001
sg4
F0.20000000000000001
sa(dp19
g3
F0.10000000000000001
sg4
F0.40000000000000002
sa(dp20
g3
F0.10000000000000001
sg4
F0.59999999999999998
sa(dp21
g3
F0.10000000000000001
sg4
F0.80000000000000004
sa(dp22
g3
F0.10000000000000001
sg4
F0.90000000000000002
sa(dp23
g3
F0.10000000000000001
sg4
F0.94999999999999996
sa(dp24
g3
F0.10000000000000001
sg4
F0.97999999999999998
sa(dp25
g3
F0.10000000000000001
sg4
F0.98999999999999999
sa(dp26
g3
F0.10000000000000001
sg4
F0.995
sa(dp27
g3
F0.10000000000000001
sg4
F0.998
sa(dp28
g3
F0.10000000000000001
sg4
F0.999
sa(dp29
g3
F0.10000000000000001
sg4
I1
sa(dp30
g3
F0.20000000000000001
sg4
I0
sa(dp31
g3
F0.20000000000000001
sg4
F0.20000000000000001
sa(dp32
g3
F0.20000000000000001
sg4
F0.40000000000000002
sa(dp33
g3
F0.20000000000000001
sg4
F0.59999999999999998
sa(dp34
g3
F0.20000000000000001
sg4
F0.80000000000000004
sa(dp35
g3
F0.20000000000000001
sg4
F0.90000000000000002
sa(dp36
g3
F0.20000000000000001
sg4
F0.94999999999999996
sa(dp37
g3
F0.20000000000000001
sg4
F0.97999999999999998
sa(dp38
g3
F0.20000000000000001
sg4
F0.98999999999999999
sa(dp39
g3
F0.20000000000000001
sg4
F0.995
sa(dp40
g3
F0.20000000000000001
sg4
F0.998
sa(dp41
g3
F0.20000000000000001
sg4
F0.999
sa(dp42
g3
F0.20000000000000001
sg4
I1
sa(dp43
g3
F0.29999999999999999
sg4
I0
sa(dp44
g3
F0.29999999999999999
sg4
F0.20000000000000001
sa(dp45
g3
F0.29999999999999999
sg4
F0.40000000000000002
sa(dp46
g3
F0.29999999999999999
sg4
F0.59999999999999998
sa(dp47
g3
F0.29999999999999999
sg4
F0.80000000000000004
sa(dp48
g3
F0.29999999999999999
sg4
F0.90000000000000002
sa(dp49
g3
F0.29999999999999999
sg4
F0.94999999999999996
sa(dp50
g3
F0.29999999999999999
sg4
F0.97999999999999998
sa(dp51
g3
F0.29999999999999999
sg4
F0.98999999999999999
sa(dp52
g3
F0.29999999999999999
sg4
F0.995
sa(dp53
g3
F0.29999999999999999
sg4
F0.998
sa(dp54
g3
F0.29999999999999999
sg4
F0.999
sa(dp55
g3
F0.29999999999999999
sg4
I1
sa(dp56
g3
F0.59999999999999998
sg4
I0
sa(dp57
g3
F0.59999999999999998
sg4
F0.20000000000000001
sa(dp58
g3
F0.59999999999999998
sg4
F0.40000000000000002
sa(dp59
g3
F0.59999999999999998
sg4
F0.59999999999999998
sa(dp60
g3
F0.59999999999999998
sg4
F0.80000000000000004
sa(dp61
g3
F0.59999999999999998
sg4
F0.90000000000000002
sa(dp62
g3
F0.59999999999999998
sg4
F0.94999999999999996
sa(dp63
g3
F0.59999999999999998
sg4
F0.97999999999999998
sa(dp64
g3
F0.59999999999999998
sg4
F0.98999999999999999
sa(dp65
g3
F0.59999999999999998
sg4
F0.995
sa(dp66
g3
F0.59999999999999998
sg4
F0.998
sa(dp67
g3
F0.59999999999999998
sg4
F0.999
sa(dp68
g3
F0.59999999999999998
sg4
I1
sa(dp69
g3
F1
sg4
I0
sa(dp70
g3
F1
sg4
F0.20000000000000001
sa(dp71
g3
F1
sg4
F0.40000000000000002
sa(dp72
g3
F1
sg4
F0.59999999999999998
sa(dp73
g3
F1
sg4
F0.80000000000000004
sa(dp74
g3
F1
sg4
F0.90000000000000002
sa(dp75
g3
F1
sg4
F0.94999999999999996
sa(dp76
g3
F1
sg4
F0.97999999999999998
sa(dp77
g3
F1
sg4
F0.98999999999999999
sa(dp78
g3
F1
sg4
F0.995
sa(dp79
g3
F1
sg4
F0.998
sa(dp80
g3
F1
sg4
F0.999
sa(dp81
g3
F1
sg4
I1
sa(dp82
g3
F1.5
sg4
I0
sa(dp83
g3
F1.5
sg4
F0.20000000000000001
sa(dp84
g3
F1.5
sg4
F0.40000000000000002
sa(dp85
g3
F1.5
sg4
F0.59999999999999998
sa(dp86
g3
F1.5
sg4
F0.80000000000000004
sa(dp87
g3
F1.5
sg4
F0.90000000000000002
sa(dp88
g3
F1.5
sg4
F0.94999999999999996
sa(dp89
g3
F1.5
sg4
F0.97999999999999998
sa(dp90
g3
F1.5
sg4
F0.98999999999999999
sa(dp91
g3
F1.5
sg4
F0.995
sa(dp92
g3
F1.5
sg4
F0.998
sa(dp93
g3
F1.5
sg4
F0.999
sa(dp94
g3
F1.5
sg4
I1
sa(dp95
g3
F2
sg4
I0
sa(dp96
g3
F2
sg4
F0.20000000000000001
sa(dp97
g3
F2
sg4
F0.40000000000000002
sa(dp98
g3
F2
sg4
F0.59999999999999998
sa(dp99
g3
F2
sg4
F0.80000000000000004
sa(dp100
g3
F2
sg4
F0.90000000000000002
sa(dp101
g3
F2
sg4
F0.94999999999999996
sa(dp102
g3
F2
sg4
F0.97999999999999998
sa(dp103
g3
F2
sg4
F0.98999999999999999
sa(dp104
g3
F2
sg4
F0.995
sa(dp105
g3
F2
sg4
F0.998
sa(dp106
g3
F2
sg4
F0.999
sa(dp107
g3
F2
sg4
I1
sa.