(lp1
(dp2
S'lmbda'
p3
F0.5
sS'initd'
p4
I1
sS'eta'
p5
I1
sS'beta'
p6
cnumpy.core.multiarray
_reconstruct
p7
(cnumpy
ndarray
p8
(I0
tS'b'
tRp9
(I1
(I1
tcnumpy
dtype
p10
(S'i8'
I0
I1
tRp11
(I3
S'<'
NNNI-1
I-1
I0
tbI00
S'\x00\x00\x00\x00\x00\x00\x00\x00'
tbsa.